target datalayout = "e-m:e-p270:32:32-p271:32:32-p272:64:64-i64:64-i128:128-f80:128-n8:16:32:64-S128"
target triple = "x86_64-unknown-linux-gnu"

%"class.icu_75::UObject" = type { ptr }
%"class.icu_75::UnicodeString" = type { %"class.icu_75::Replaceable", %"union.icu_75::UnicodeString::StackBufferOrFields" }
%"class.icu_75::Replaceable" = type { %"class.icu_75::UObject" }
%"union.icu_75::UnicodeString::StackBufferOrFields" = type { %struct.anon.0, [32 x i8] }
%struct.anon.0 = type { i16, i32, i32, ptr }
%"class.icu_75::StringPiece" = type <{ ptr, i32, [4 x i8] }>
%"class.icu_75::Formattable" = type { %"class.icu_75::UObject", %union.anon, ptr, ptr, i32, %"class.icu_75::UnicodeString" }
%union.anon = type { %struct.anon.1 }
%struct.anon.1 = type { ptr, i32 }

; Function Attrs: mustprogress nounwind uwtable
define linkonce_odr noundef ptr @_ZNK6icu_7511StringPiece4dataEv(ptr noundef nonnull align 8 dereferenceable(12) %this) #1 comdat align 2 {
entry:
  %this.addr = alloca ptr, align 8
  store ptr %this, ptr %this.addr, align 8
  %this1 = load ptr, ptr %this.addr, align 8
  %ptr_ = getelementptr inbounds %"class.icu_75::StringPiece", ptr %this1, i32 0, i32 0
  %0 = load ptr, ptr %ptr_, align 8
  ret ptr %0
}

; Function Attrs: mustprogress nounwind uwtable
define linkonce_odr noundef i32 @_ZNK6icu_7511StringPiece4sizeEv(ptr noundef nonnull align 8 dereferenceable(12) %this) #1 comdat align 2 {
entry:
  %this.addr = alloca ptr, align 8
  store ptr %this, ptr %this.addr, align 8
  %this1 = load ptr, ptr %this.addr, align 8
  %length_ = getelementptr inbounds %"class.icu_75::StringPiece", ptr %this1, i32 0, i32 1
  %0 = load i32, ptr %length_, align 8
  ret i32 %0
}

; Function Attrs: mustprogress nounwind uwtable
define internal noundef signext i8 @_ZL9U_FAILURE10UErrorCode(i32 noundef %code) #1 {
entry:
  %code.addr = alloca i32, align 4
  store i32 %code, ptr %code.addr, align 4
  %0 = load i32, ptr %code.addr, align 4
  %cmp = icmp sgt i32 %0, 0
  %conv = zext i1 %cmp to i8
  ret i8 %conv
}

; Function Attrs: mustprogress uwtable
define i32 @unum_parseDecimal_75(ptr noundef %fmt, ptr noundef %text, i32 noundef %textLength, ptr noundef %parsePos, ptr noundef %outBuf, i32 noundef %outBufLength, ptr noundef %status) #0 personality ptr @__gxx_personality_v0 {
entry:
  %retval = alloca i32, align 4
  %fmt.addr = alloca ptr, align 8
  %text.addr = alloca ptr, align 8
  %textLength.addr = alloca i32, align 4
  %parsePos.addr = alloca ptr, align 8
  %outBuf.addr = alloca ptr, align 8
  %outBufLength.addr = alloca i32, align 4
  %status.addr = alloca ptr, align 8
  %res = alloca %"class.icu_75::Formattable", align 8
  %exn.slot = alloca ptr, align 8
  %ehselector.slot = alloca i32, align 4
  %sp = alloca %"class.icu_75::StringPiece", align 8
  %cleanup.dest.slot = alloca i32, align 4
  store ptr %fmt, ptr %fmt.addr, align 8
  store ptr %text, ptr %text.addr, align 8
  store i32 %textLength, ptr %textLength.addr, align 4
  store ptr %parsePos, ptr %parsePos.addr, align 8
  store ptr %outBuf, ptr %outBuf.addr, align 8
  store i32 %outBufLength, ptr %outBufLength.addr, align 4
  store ptr %status, ptr %status.addr, align 8
  %0 = load ptr, ptr %status.addr, align 8
  %1 = load i32, ptr %0, align 4
  %call = call noundef signext i8 @_ZL9U_FAILURE10UErrorCode(i32 noundef %1)
  %tobool = icmp ne i8 %call, 0
  br i1 %tobool, label %if.then, label %if.end

if.then:                                          ; preds = %entry
  store i32 -1, ptr %retval, align 4
  br label %return

if.end:                                           ; preds = %entry
  %2 = load ptr, ptr %outBuf.addr, align 8
  %cmp = icmp eq ptr %2, null
  br i1 %cmp, label %land.lhs.true, label %lor.lhs.false

land.lhs.true:                                    ; preds = %if.end
  %3 = load i32, ptr %outBufLength.addr, align 4
  %cmp1 = icmp ne i32 %3, 0
  br i1 %cmp1, label %if.then3, label %lor.lhs.false

lor.lhs.false:                                    ; preds = %land.lhs.true, %if.end
  %4 = load i32, ptr %outBufLength.addr, align 4
  %cmp2 = icmp slt i32 %4, 0
  br i1 %cmp2, label %if.then3, label %if.end4

if.then3:                                         ; preds = %lor.lhs.false, %land.lhs.true
  %5 = load ptr, ptr %status.addr, align 8
  store i32 1, ptr %5, align 4
  store i32 -1, ptr %retval, align 4
  br label %return

if.end4:                                          ; preds = %lor.lhs.false
  call void @_ZN6icu_7511FormattableC1Ev(ptr noundef nonnull align 8 dereferenceable(112) %res)
  %6 = load ptr, ptr %fmt.addr, align 8
  %7 = load ptr, ptr %text.addr, align 8
  %8 = load i32, ptr %textLength.addr, align 4
  %9 = load ptr, ptr %parsePos.addr, align 8
  %10 = load ptr, ptr %status.addr, align 8
  invoke void @_ZL8parseResRN6icu_7511FormattableEPKPvPKDsiPiP10UErrorCode(ptr noundef nonnull align 8 dereferenceable(112) %res, ptr noundef %6, ptr noundef %7, i32 noundef %8, ptr noundef %9, ptr noundef %10)
          to label %invoke.cont unwind label %lpad

invoke.cont:                                      ; preds = %if.end4
  %11 = load ptr, ptr %status.addr, align 8
  %call6 = invoke { ptr, i32 } @_ZN6icu_7511Formattable16getDecimalNumberER10UErrorCode(ptr noundef nonnull align 8 dereferenceable(112) %res, ptr noundef nonnull align 4 dereferenceable(4) %11)
          to label %invoke.cont5 unwind label %lpad

invoke.cont5:                                     ; preds = %invoke.cont
  %12 = getelementptr inbounds { ptr, i32 }, ptr %sp, i32 0, i32 0
  %13 = extractvalue { ptr, i32 } %call6, 0
  store ptr %13, ptr %12, align 8
  %14 = getelementptr inbounds { ptr, i32 }, ptr %sp, i32 0, i32 1
  %15 = extractvalue { ptr, i32 } %call6, 1
  store i32 %15, ptr %14, align 8
  %16 = load ptr, ptr %status.addr, align 8
  %17 = load i32, ptr %16, align 4
  %call8 = invoke noundef signext i8 @_ZL9U_FAILURE10UErrorCode(i32 noundef %17)
          to label %invoke.cont7 unwind label %lpad

invoke.cont7:                                     ; preds = %invoke.cont5
  %tobool9 = icmp ne i8 %call8, 0
  br i1 %tobool9, label %if.then10, label %if.else

if.then10:                                        ; preds = %invoke.cont7
  store i32 -1, ptr %retval, align 4
  store i32 1, ptr %cleanup.dest.slot, align 4
  br label %cleanup

lpad:                                             ; preds = %if.end31, %if.else25, %invoke.cont20, %if.then19, %if.else15, %if.else, %invoke.cont5, %invoke.cont, %if.end4
  %18 = landingpad { ptr, i32 }
          cleanup
  %19 = extractvalue { ptr, i32 } %18, 0
  store ptr %19, ptr %exn.slot, align 8
  %20 = extractvalue { ptr, i32 } %18, 1
  store i32 %20, ptr %ehselector.slot, align 4
  call void @_ZN6icu_7511FormattableD1Ev(ptr noundef nonnull align 8 dereferenceable(112) %res) #8
  br label %eh.resume

if.else:                                          ; preds = %invoke.cont7
  %call12 = invoke noundef i32 @_ZNK6icu_7511StringPiece4sizeEv(ptr noundef nonnull align 8 dereferenceable(12) %sp)
          to label %invoke.cont11 unwind label %lpad

invoke.cont11:                                    ; preds = %if.else
  %21 = load i32, ptr %outBufLength.addr, align 4
  %cmp13 = icmp sgt i32 %call12, %21
  br i1 %cmp13, label %if.then14, label %if.else15

if.then14:                                        ; preds = %invoke.cont11
  %22 = load ptr, ptr %status.addr, align 8
  store i32 15, ptr %22, align 4
  br label %if.end30

if.else15:                                        ; preds = %invoke.cont11
  %call17 = invoke noundef i32 @_ZNK6icu_7511StringPiece4sizeEv(ptr noundef nonnull align 8 dereferenceable(12) %sp)
          to label %invoke.cont16 unwind label %lpad

invoke.cont16:                                    ; preds = %if.else15
  %23 = load i32, ptr %outBufLength.addr, align 4
  %cmp18 = icmp eq i32 %call17, %23
  br i1 %cmp18, label %if.then19, label %if.else25

if.then19:                                        ; preds = %invoke.cont16
  %24 = load ptr, ptr %outBuf.addr, align 8
  %call21 = invoke noundef ptr @_ZNK6icu_7511StringPiece4dataEv(ptr noundef nonnull align 8 dereferenceable(12) %sp)
          to label %invoke.cont20 unwind label %lpad

invoke.cont20:                                    ; preds = %if.then19
  %call23 = invoke noundef i32 @_ZNK6icu_7511StringPiece4sizeEv(ptr noundef nonnull align 8 dereferenceable(12) %sp)
          to label %invoke.cont22 unwind label %lpad

invoke.cont22:                                    ; preds = %invoke.cont20
  %conv = sext i32 %call23 to i64
  %call24 = call ptr @strncpy(ptr noundef %24, ptr noundef %call21, i64 noundef %conv) #8
  %25 = load ptr, ptr %status.addr, align 8
  store i32 -124, ptr %25, align 4
  br label %if.end29

if.else25:                                        ; preds = %invoke.cont16
  %26 = load ptr, ptr %outBuf.addr, align 8
  %call27 = invoke noundef ptr @_ZNK6icu_7511StringPiece4dataEv(ptr noundef nonnull align 8 dereferenceable(12) %sp)
          to label %invoke.cont26 unwind label %lpad

invoke.cont26:                                    ; preds = %if.else25
  %call28 = call ptr @strcpy(ptr noundef %26, ptr noundef %call27) #8
  br label %if.end29

if.end29:                                         ; preds = %invoke.cont26, %invoke.cont22
  br label %if.end30

if.end30:                                         ; preds = %if.end29, %if.then14
  br label %if.end31

if.end31:                                         ; preds = %if.end30
  %call33 = invoke noundef i32 @_ZNK6icu_7511StringPiece4sizeEv(ptr noundef nonnull align 8 dereferenceable(12) %sp)
          to label %invoke.cont32 unwind label %lpad

invoke.cont32:                                    ; preds = %if.end31
  store i32 %call33, ptr %retval, align 4
  store i32 1, ptr %cleanup.dest.slot, align 4
  br label %cleanup

cleanup:                                          ; preds = %invoke.cont32, %if.then10
  call void @_ZN6icu_7511FormattableD1Ev(ptr noundef nonnull align 8 dereferenceable(112) %res) #8
  br label %return

return:                                           ; preds = %cleanup, %if.then3, %if.then
  %27 = load i32, ptr %retval, align 4
  ret i32 %27

eh.resume:                                        ; preds = %lpad
  %exn = load ptr, ptr %exn.slot, align 8
  %sel = load i32, ptr %ehselector.slot, align 4
  %lpad.val = insertvalue { ptr, i32 } poison, ptr %exn, 0
  %lpad.val34 = insertvalue { ptr, i32 } %lpad.val, i32 %sel, 1
  resume { ptr, i32 } %lpad.val34
}