; Function Attrs: mustprogress uwtable
define i32 @unum_parseDecimal_75(ptr noundef %fmt, ptr noundef %text, i32 noundef %textLength, ptr noundef %parsePos, ptr noundef %outBuf, i32 noundef %outBufLength, ptr noundef %status) local_unnamed_addr #0 personality ptr @__gxx_personality_v0 {
entry:
  %res = alloca %"class.icu_75::Formattable", align 8
  %0 = load i32, ptr %status, align 4
  %cmp.i = icmp slt i32 %0, 1
  br i1 %cmp.i, label %if.end, label %return

if.end:                                           ; preds = %entry
  %cmp = icmp eq ptr %outBuf, null
  %cmp1 = icmp ne i32 %outBufLength, 0
  %or.cond = and i1 %cmp, %cmp1
  %cmp2 = icmp slt i32 %outBufLength, 0
  %or.cond1 = or i1 %cmp2, %or.cond
  br i1 %or.cond1, label %if.then3, label %if.end4

if.then3:                                         ; preds = %if.end
  store i32 1, ptr %status, align 4
  br label %return

if.end4:                                          ; preds = %if.end
  call void @_ZN6icu_7511FormattableC1Ev(ptr noundef nonnull align 8 dereferenceable(112) %res)
  invoke fastcc void @_ZL8parseResRN6icu_7511FormattableEPKPvPKDsiPiP10UErrorCode(ptr noundef nonnull align 8 dereferenceable(112) %res, ptr noundef %fmt, ptr noundef %text, i32 noundef %textLength, ptr noundef %parsePos, ptr noundef nonnull %status)
          to label %invoke.cont unwind label %lpad

invoke.cont:                                      ; preds = %if.end4
  %call6 = invoke { ptr, i32 } @_ZN6icu_7511Formattable16getDecimalNumberER10UErrorCode(ptr noundef nonnull align 8 dereferenceable(112) %res, ptr noundef nonnull align 4 dereferenceable(4) %status)
          to label %invoke.cont5 unwind label %lpad

invoke.cont5:                                     ; preds = %invoke.cont
  %1 = extractvalue { ptr, i32 } %call6, 0
  %2 = extractvalue { ptr, i32 } %call6, 1
  %3 = load i32, ptr %status, align 4
  %cmp.i13 = icmp slt i32 %3, 1
  br i1 %cmp.i13, label %if.else, label %cleanup

lpad:                                             ; preds = %invoke.cont, %if.end4
  %4 = landingpad { ptr, i32 }
          cleanup
  call void @_ZN6icu_7511FormattableD1Ev(ptr noundef nonnull align 8 dereferenceable(112) %res) #10
  resume { ptr, i32 } %4

if.else:                                          ; preds = %invoke.cont5
  %cmp13 = icmp sgt i32 %2, %outBufLength
  br i1 %cmp13, label %if.then14, label %if.else15

if.then14:                                        ; preds = %if.else
  store i32 15, ptr %status, align 4
  br label %cleanup

if.else15:                                        ; preds = %if.else
  %cmp18 = icmp eq i32 %2, %outBufLength
  br i1 %cmp18, label %if.then19, label %if.else25

if.then19:                                        ; preds = %if.else15
  %conv = zext nneg i32 %outBufLength to i64
  %call24 = call ptr @strncpy(ptr noundef %outBuf, ptr noundef %1, i64 noundef %conv) #10
  store i32 -124, ptr %status, align 4
  br label %cleanup

if.else25:                                        ; preds = %if.else15
  %call28 = call ptr @strcpy(ptr noundef nonnull dereferenceable(1) %outBuf, ptr noundef nonnull dereferenceable(1) %1) #10
  br label %cleanup

cleanup:                                          ; preds = %if.then19, %if.else25, %if.then14, %invoke.cont5
  %retval.0 = phi i32 [ -1, %invoke.cont5 ], [ %2, %if.then14 ], [ %2, %if.else25 ], [ %outBufLength, %if.then19 ]
  call void @_ZN6icu_7511FormattableD1Ev(ptr noundef nonnull align 8 dereferenceable(112) %res) #10
  br label %return

return:                                           ; preds = %entry, %cleanup, %if.then3
  %retval.1 = phi i32 [ -1, %if.then3 ], [ %retval.0, %cleanup ], [ -1, %entry ]
  ret i32 %retval.1
}